HTTP/1.1 200 Connection established

HTTP/1.1 200 OK
Cache-Control: no-store, no-cache, private
Connection: close
Content-Length: 19170
Content-Type: application/json; charset=utf-8
Date: Wed, 14 Apr 2021 15:53:41 GMT
Expires: 0
RFC3339-Date: 2021-04-14T15:53:41.116022Z

{"Certificate":"Certificate:
    Data:
        Version: 3 (0x2)
        Serial Number:
            2e:8f:c8:51:0b:7f:b7:26:9d:d4:41:0c:e5:7b:8b:31
    Signature Algorithm: sha256WithRSAEncryption
        Issuer: C=US, ST=A, L=midway, O=Hewlett Packard Enterprise Company, OU=Remote Device Access, CN=g9t7154g.houston.hpe.com/emailAddress=rda@hpe.com
        Validity
            Not Before: Apr  4 15:53:40 2021 GMT
            Not After : Apr  4 15:53:41 2022 GMT
        Subject: C=US, ST=E, L=CAS, O=HPE, OU=Remote Device Access, CN=1da2a108-b216-4d24-b6b1-97f9fb3ce66c/emailAddress=rda@hpe.com, GN=841730-B21/serialNumber=SGH821WA9N
        Subject Public Key Info:
            Public Key Algorithm: rsaEncryption
                Public-Key: (2048 bit)
                Modulus:
                    00:bf:9a:49:f1:67:dd:54:95:07:28:61:0c:c3:0f:
                    12:1d:e6:d5:eb:ac:f8:9b:47:67:d7:b2:2a:f5:ff:
                    65:9f:e5:2f:95:f2:c6:17:c8:3b:cc:20:c7:95:a5:
                    64:e5:41:10:dc:ca:4a:9f:24:82:d1:55:5f:f0:5a:
                    77:89:8d:43:0e:b3:c3:e2:08:13:53:74:cc:b0:a1:
                    39:2f:5e:0f:8e:4d:c3:ce:40:25:ff:63:7e:38:b5:
                    99:31:07:30:26:d4:c9:8c:85:de:fb:9c:c0:95:eb:
                    1a:0a:8c:bc:d8:64:fc:09:c3:27:73:71:a6:c4:81:
                    00:01:ce:74:80:bc:01:83:b6:66:36:88:83:b4:39:
                    1f:68:6e:b8:bb:46:fb:45:59:c7:35:98:ba:2a:94:
                    f0:84:ef:4f:ec:59:1b:f2:24:9c:4f:43:00:7a:79:
                    da:49:a0:a9:80:94:b1:e1:b8:61:48:6f:49:c5:3f:
                    98:a9:68:67:bb:f3:c4:fd:6c:7d:17:f8:64:a6:b9:
                    8e:fe:87:f5:74:93:50:05:f3:a1:7b:84:97:38:20:
                    ae:58:e3:1a:92:e1:09:99:35:b4:e0:6e:07:cb:12:
                    75:ff:e9:02:d4:88:eb:16:1e:a9:35:54:0e:1b:c1:
                    e6:08:aa:fb:f2:31:32:27:bb:99:dd:63:f6:04:9c:
                    7d:d9
                Exponent: 65537 (0x10001)
        X509v3 extensions:
            X509v3 Key Usage: critical
                Digital Signature, Key Encipherment
            X509v3 Extended Key Usage: critical
                TLS Web Client Authentication
            X509v3 Basic Constraints: critical
                CA:FALSE
            X509v3 Subject Key Identifier:
                CB:80:7C:F8:AA:8C:13:9E:57:23:21:27:20:47:66:67:A0:87:85:BB
            X509v3 Authority Key Identifier:
                keyid:76:DF:7D:42:35:35:B4:DA:8E:6A:FA:69:C1:E6:C7:62:8B:67:91:93

            1.3.6.1.4.1.11.237.0:
                ..hpe.com
            1.3.6.1.4.1.11.237.1:
                ..HPEHC
            1.3.6.1.4.1.11.237.2:
                ..Servers
            1.3.6.1.4.1.11.237.3:
                ..HPE Volume OPA aggregator
            1.3.6.1.4.1.11.237.4:
                ..HPE ProLiant OPA
            1.3.6.1.4.1.11.237.5:
                ..HPE OPA for Volume Servers
            1.3.6.1.4.1.11.237.6:
                .#HPE OPA for ProLiant Volume Servers
            1.3.6.1.4.1.11.237.7:
                .'HPE ProLiant On-Premise Aggregator 5000
            1.3.6.1.4.1.11.35.4:
                ..volume
            1.3.6.1.4.1.11.35.6:
                ..volume-line
            1.3.6.1.4.1.11.47.3:
                ..0
            1.3.6.1.4.1.11.48.1:
                ..
            X509v3 Certificate Policies:
                Policy: 1.3.6.1.4.1.11.53.8
                  CPS: https://midway.ext.hpe.com/pub/rda-cps.pdf
                  CPS: http://www.hpe.com/info/rda-docs
                  User Notice:
                    Organization: Hewlett Packard Enterprise
                    Number: 13
                    Explicit Text: Authority to bind HPE does not correspond with use or possession of this certificate.  Issued to facilitate communication with HPE.

    Signature Algorithm: sha256WithRSAEncryption
         90:20:40:42:af:fb:ec:5c:3b:f4:0e:a9:2b:02:c9:4d:08:87:
         e2:be:f2:0f:13:52:06:5e:d6:eb:ef:80:c9:b1:75:21:58:00:
         b2:72:b6:34:98:66:45:0a:f9:db:bc:05:c6:35:f8:f0:cb:9c:
         9a:af:de:36:34:3c:92:2b:d6:25:7e:e7:da:54:d9:ab:c9:3b:
         97:69:3e:b6:c6:d3:0e:51:3c:a3:cd:86:26:ea:9e:b5:1c:77:
         48:f0:e6:e0:d1:02:ff:35:f4:82:e6:7d:6a:e8:1d:ad:27:05:
         5c:ab:74:d6:9f:2c:08:9f:b0:e7:8a:fc:af:3a:1e:66:1e:7f:
         a7:3c:9a:19:52:e9:6c:6b:90:8a:95:00:09:ed:d1:e2:a6:02:
         63:58:29:70:f9:8d:46:49:57:6c:e2:3a:9b:6a:3b:75:9a:ca:
         3c:b2:c2:57:6e:04:79:89:3b:2b:7c:6b:88:ff:9f:30:9d:34:
         bb:fe:b4:a9:27:c3:73:2f:30:80:68:f8:af:f8:1e:23:82:1e:
         59:09:3e:96:cf:65:7c:cb:86:4f:c3:63:fd:f5:07:92:44:0b:
         86:e0:53:25:33:cd:7e:ba:39:5d:06:0c:e2:01:ad:83:60:40:
         0b:cc:2a:3d:52:f5:73:e8:75:be:6f:d9:7b:fe:00:22:a8:3b:
         e6:5f:63:3e
-----BEGIN CERTIFICATE-----
MIIHQjCCBiqgAwIBAgIQLo/IUQt/tyad1EEM5XuLMTANBgkqhkiG9w0BAQsFADCB
tTELMAkGA1UEBhMCVVMxCjAIBgNVBAgTAUExDzANBgNVBAcTBm1pZHdheTErMCkG
A1UEChMiSGV3bGV0dCBQYWNrYXJkIEVudGVycHJpc2UgQ29tcGFueTEdMBsGA1UE
CxMUUmVtb3RlIERldmljZSBBY2Nlc3MxITAfBgNVBAMTGGc5dDcxNTRnLmhvdXN0
b24uaHBlLmNvbTEaMBgGCSqGSIb3DQEJARYLcmRhQGhwZS5jb20wHhcNMjEwNDA0
MTU1MzQwWhcNMjIwNDA0MTU1MzQxWjCByTELMAkGA1UEBhMCVVMxCjAIBgNVBAgT
AUUxDDAKBgNVBAcTA0NBUzEMMAoGA1UEChMDSFBFMR0wGwYDVQQLExRSZW1vdGUg
RGV2aWNlIEFjY2VzczEtMCsGA1UEAxMkMWRhMmExMDgtYjIxNi00ZDI0LWI2YjEt
OTdmOWZiM2NlNjZjMRowGAYJKoZIhvcNAQkBFgtyZGFAaHBlLmNvbTETMBEGA1UE
KhMKODQxNzMwLUIyMTETMBEGA1UEBRMKU0dIODIxV0E5TjCCASIwDQYJKoZIhvcN
AQEBBQADggEPADCCAQoCggEBAL+aSfFn3VSVByhhDMMPEh3m1eus+JtHZ9eyKvX/
ZZ/lL5XyxhfIO8wgx5WlZOVBENzKSp8kgtFVX/Bad4mNQw6zw+IIE1N0zLChOS9e
D45Nw85AJf9jfji1mTEHMCbUyYyF3vucwJXrGgqMvNhk/AnDJ3NxpsSBAAHOdIC8
AYO2ZjaIg7Q5H2huuLtG+0VZxzWYuiqU8ITvT+xZG/IknE9DAHp52kmgqYCUseG4
YUhvScU/mKloZ7vzxP1sfRf4ZKa5jv6H9XSTUAXzoXuElzggrljjGpLhCZk1tOBu
B8sSdf/pAtSI6xYeqTVUDhvB5giq+/IxMie7md1j9gScfdkCAwEAAaOCAzYwggMy
MA4GA1UdDwEB/wQEAwIFoDAWBgNVHSUBAf8EDDAKBggrBgEFBQcDAjAMBgNVHRMB
Af8EAjAAMB0GA1UdDgQWBBTLgHz4qowTnlcjIScgR2ZnoIeFuzAfBgNVHSMEGDAW
gBR2331CNTW02o5q+mnB5sdii2eRkzAWBgkrBgEEAQuBbQAECQwHaHBlLmNvbTAU
BgkrBgEEAQuBbQEEBwwFSFBFSEMwFgYJKwYBBAELgW0CBAkMB1NlcnZlcnMwKAYJ
KwYBBAELgW0DBBsMGUhQRSBWb2x1bWUgT1BBIGFnZ3JlZ2F0b3IwHwYJKwYBBAEL
gW0EBBIMEEhQRSBQcm9MaWFudCBPUEEwKQYJKwYBBAELgW0FBBwMGkhQRSBPUEEg
Zm9yIFZvbHVtZSBTZXJ2ZXJzMDIGCSsGAQQBC4FtBgQlDCNIUEUgT1BBIGZvciBQ
cm9MaWFudCBWb2x1bWUgU2VydmVyczA2BgkrBgEEAQuBbQcEKQwnSFBFIFByb0xp
YW50IE9uLVByZW1pc2UgQWdncmVnYXRvciA1MDAwMBQGCCsGAQQBCyMEBAgMBnZv
bHVtZTAZBggrBgEEAQsjBgQNDAt2b2x1bWUtbGluZTAPBggrBgEEAQsvAwQDDAEw
MA4GCCsGAQQBCzABBAIMADCCAT4GA1UdIASCATUwggExMIIBLQYIKwYBBAELNQgw
ggEfMDYGCCsGAQUFBwIBFipodHRwczovL21pZHdheS5leHQuaHBlLmNvbS9wdWIv
cmRhLWNwcy5wZGYwLAYIKwYBBQUHAgEWIGh0dHA6Ly93d3cuaHBlLmNvbS9pbmZv
L3JkYS1kb2NzMIG2BggrBgEFBQcCAjCBqTAhGhpIZXdsZXR0IFBhY2thcmQgRW50
ZXJwcmlzZTADAgENGoGDQXV0aG9yaXR5IHRvIGJpbmQgSFBFIGRvZXMgbm90IGNv
cnJlc3BvbmQgd2l0aCB1c2Ugb3IgcG9zc2Vzc2lvbiBvZiB0aGlzIGNlcnRpZmlj
YXRlLiAgSXNzdWVkIHRvIGZhY2lsaXRhdGUgY29tbXVuaWNhdGlvbiB3aXRoIEhQ
RS4wDQYJKoZIhvcNAQELBQADggEBAJAgQEKv++xcO/QOqSsCyU0Ih+K+8g8TUgZe
1uvvgMmxdSFYALJytjSYZkUK+du8BcY1+PDLnJqv3jY0PJIr1iV+59pU2avJO5dp
PrbG0w5RPKPNhibqnrUcd0jw5uDRAv819ILmfWroHa0nBVyrdNafLAifsOeK/K86
HmYef6c8mhlS6WxrkIqVAAnt0eKmAmNYKXD5jUZJV2ziOptqO3WayjyywlduBHmJ
Oyt8a4j/nzCdNLv+tKknw3MvMIBo+K/4HiOCHlkJPpbPZXzLhk/DY/31B5JEC4bg
UyUzzX66OV0GDOIBrYNgQAvMKj1S9XPodb5v2Xv+ACKoO+ZfYz4=
-----END CERTIFICATE-----
Certificate:
    Data:
        Version: 3 (0x2)
        Serial Number: 15606815249983178462 (0xd8968bc80a6586de)
    Signature Algorithm: sha256WithRSAEncryption
        Issuer: C=US, ST=A, L=root, O=Hewlett Packard Enterprise Company, OU=Remote Device Access, CN=Hewlett Packard Enterprise Remote Device Access Test CA/emailAddress=rda@hpe.com
        Validity
            Not Before: Apr 14 13:56:48 2021 GMT
            Not After : Apr 14 13:56:48 2022 GMT
        Subject: C=US, ST=A, L=midway, O=Hewlett Packard Enterprise Company, OU=Remote Device Access, CN=g9t7154g.houston.hpe.com/emailAddress=rda@hpe.com
        Subject Public Key Info:
            Public Key Algorithm: rsaEncryption
                Public-Key: (2048 bit)
                Modulus:
                    00:dc:41:a5:e6:95:58:87:34:82:a2:dc:59:e7:6a:
                    64:97:6b:63:42:cc:11:f9:bd:09:68:4b:b4:4e:fc:
                    80:47:b3:41:c1:ee:ec:b2:e9:21:93:a8:bd:ae:e4:
                    25:65:14:74:d2:45:28:bb:77:c0:f3:e7:db:b9:61:
                    7e:33:c0:31:92:aa:d8:76:60:70:9a:8b:a3:40:2b:
                    8d:b3:3a:47:9b:25:08:af:f5:63:4a:d1:6f:f8:27:
                    1f:f4:be:53:94:c8:75:31:18:20:99:f3:f5:f7:01:
                    3b:13:ac:3b:89:59:76:3d:3e:83:cc:a4:68:71:82:
                    09:3b:52:14:03:23:3c:cd:f3:a3:cb:1f:aa:2c:26:
                    03:9d:7d:14:36:ec:7b:e4:2b:15:08:48:82:33:74:
                    f0:fe:de:42:80:a8:0e:e9:1b:7b:0d:86:b8:76:0a:
                    99:48:f3:76:c0:f0:1f:1f:48:f4:43:e5:85:33:c7:
                    97:05:e6:55:6c:f0:46:f2:3b:91:1b:34:83:38:90:
                    fe:91:dd:8c:d1:d5:d7:cb:fe:9f:71:fb:cc:af:65:
                    38:29:7c:11:da:cb:5c:9b:98:45:90:09:16:e0:9d:
                    e2:f0:1a:89:5a:38:0e:29:54:01:35:51:ba:dc:ba:
                    50:e7:95:a2:21:78:22:65:15:28:ae:f0:45:60:58:
                    ff:83
                Exponent: 65537 (0x10001)
        X509v3 extensions:
            X509v3 Key Usage: critical
                Digital Signature, Key Encipherment, Data Encipherment, Certificate Sign, CRL Sign
            X509v3 Extended Key Usage: critical
                TLS Web Client Authentication, TLS Web Server Authentication
            Netscape Cert Type: critical
                SSL Client, SSL Server
            X509v3 Basic Constraints: critical
                CA:TRUE, pathlen:1
            X509v3 Subject Key Identifier:
                76:DF:7D:42:35:35:B4:DA:8E:6A:FA:69:C1:E6:C7:62:8B:67:91:93
            Authority Information Access:
                OCSP - URI:http://127.0.0.1:2372

            X509v3 Authority Key Identifier:
                keyid:A8:A7:FC:8C:E6:F1:8F:57:10:10:3F:A4:A0:BD:6B:3F:C1:C6:C2:B2
                DirName:/C=US/ST=A/L=root/O=Hewlett Packard Enterprise Company/OU=Remote Device Access/CN=Hewlett Packard Enterprise Remote Device Access Test CA/emailAddress=rda@hpe.com
                serial:00

    Signature Algorithm: sha256WithRSAEncryption
         61:79:9e:9b:b6:be:c3:7f:d4:84:4e:d4:c4:88:96:37:31:f8:
         82:e5:8d:92:e5:79:4e:3d:40:76:bd:ce:f4:ac:9b:c5:16:32:
         05:26:59:0e:0a:1a:ad:e4:89:43:78:32:6b:e4:f0:93:b8:b0:
         22:f3:93:fd:e2:42:22:f9:83:9e:8b:b4:d1:6f:2f:92:28:93:
         79:45:e0:af:7f:eb:61:79:1e:02:cd:48:6a:73:61:c2:1a:01:
         85:90:08:c0:b6:b5:d0:2b:9b:f2:04:51:03:1e:da:66:10:f2:
         81:0b:c7:31:d8:50:52:0d:7b:cb:78:c7:89:5f:43:1e:b6:a5:
         cf:b4:b5:61:14:20:bb:5c:d0:df:1e:85:76:8b:fa:fd:2b:d6:
         1c:d3:68:e5:1d:6e:80:f7:6d:90:14:34:1f:65:42:e5:d1:f5:
         71:df:a2:0a:e9:eb:22:47:cd:29:35:c3:b7:7a:b6:21:2e:4a:
         87:4d:2e:98:58:71:9e:f0:83:42:ff:65:bf:62:fc:22:46:27:
         4c:4f:c8:65:69:72:00:82:7c:bc:6c:58:15:46:8a:58:58:ba:
         80:44:80:99:d5:d3:5a:d9:48:ab:d6:a5:1a:9a:58:1c:eb:7f:
         16:14:47:81:93:fe:d3:56:17:e0:ac:d4:a6:0b:f5:f2:04:85:
         d1:7f:50:6f
-----BEGIN CERTIFICATE-----
MIIFwjCCBKqgAwIBAgIJANiWi8gKZYbeMA0GCSqGSIb3DQEBCwUAMIHSMQswCQYD
VQQGEwJVUzEKMAgGA1UECBMBQTENMAsGA1UEBxMEcm9vdDErMCkGA1UEChMiSGV3
bGV0dCBQYWNrYXJkIEVudGVycHJpc2UgQ29tcGFueTEdMBsGA1UECxMUUmVtb3Rl
IERldmljZSBBY2Nlc3MxQDA+BgNVBAMTN0hld2xldHQgUGFja2FyZCBFbnRlcnBy
aXNlIFJlbW90ZSBEZXZpY2UgQWNjZXNzIFRlc3QgQ0ExGjAYBgkqhkiG9w0BCQEW
C3JkYUBocGUuY29tMB4XDTIxMDQxNDEzNTY0OFoXDTIyMDQxNDEzNTY0OFowgbUx
CzAJBgNVBAYTAlVTMQowCAYDVQQIEwFBMQ8wDQYDVQQHEwZtaWR3YXkxKzApBgNV
BAoTIkhld2xldHQgUGFja2FyZCBFbnRlcnByaXNlIENvbXBhbnkxHTAbBgNVBAsT
FFJlbW90ZSBEZXZpY2UgQWNjZXNzMSEwHwYDVQQDExhnOXQ3MTU0Zy5ob3VzdG9u
LmhwZS5jb20xGjAYBgkqhkiG9w0BCQEWC3JkYUBocGUuY29tMIIBIjANBgkqhkiG
9w0BAQEFAAOCAQ8AMIIBCgKCAQEA3EGl5pVYhzSCotxZ52pkl2tjQswR+b0JaEu0
TvyAR7NBwe7ssukhk6i9ruQlZRR00kUou3fA8+fbuWF+M8AxkqrYdmBwmoujQCuN
szpHmyUIr/VjStFv+Ccf9L5TlMh1MRggmfP19wE7E6w7iVl2PT6DzKRocYIJO1IU
AyM8zfOjyx+qLCYDnX0UNux75CsVCEiCM3Tw/t5CgKgO6Rt7DYa4dgqZSPN2wPAf
H0j0Q+WFM8eXBeZVbPBG8juRGzSDOJD+kd2M0dXXy/6fcfvMr2U4KXwR2stcm5hF
kAkW4J3i8BqJWjgOKVQBNVG63LpQ55WiIXgiZRUorvBFYFj/gwIDAQABo4IBtDCC
AbAwDgYDVR0PAQH/BAQDAgG2MCAGA1UdJQEB/wQWMBQGCCsGAQUFBwMCBggrBgEF
BQcDATAUBglghkgBhvhCAQEBAf8EBAMCBsAwEgYDVR0TAQH/BAgwBgEB/wIBATAd
BgNVHQ4EFgQUdt99QjU1tNqOavppwebHYotnkZMwMQYIKwYBBQUHAQEEJTAjMCEG
CCsGAQUFBzABhhVodHRwOi8vMTI3LjAuMC4xOjIzNzIwgf8GA1UdIwSB9zCB9IAU
qKf8jObxj1cQED+koL1rP8HGwrKhgdikgdUwgdIxCzAJBgNVBAYTAlVTMQowCAYD
VQQIEwFBMQ0wCwYDVQQHEwRyb290MSswKQYDVQQKEyJIZXdsZXR0IFBhY2thcmQg
RW50ZXJwcmlzZSBDb21wYW55MR0wGwYDVQQLExRSZW1vdGUgRGV2aWNlIEFjY2Vz
czFAMD4GA1UEAxM3SGV3bGV0dCBQYWNrYXJkIEVudGVycHJpc2UgUmVtb3RlIERl
dmljZSBBY2Nlc3MgVGVzdCBDQTEaMBgGCSqGSIb3DQEJARYLcmRhQGhwZS5jb22C
AQAwDQYJKoZIhvcNAQELBQADggEBAGF5npu2vsN/1IRO1MSIljcx+ILljZLleU49
QHa9zvSsm8UWMgUmWQ4KGq3kiUN4Mmvk8JO4sCLzk/3iQiL5g56LtNFvL5Iok3lF
4K9/62F5HgLNSGpzYcIaAYWQCMC2tdArm/IEUQMe2mYQ8oELxzHYUFINe8t4x4lf
Qx62pc+0tWEUILtc0N8ehXaL+v0r1hzTaOUdboD3bZAUNB9lQuXR9XHfogrp6yJH
zSk1w7d6tiEuSodNLphYcZ7wg0L/Zb9i/CJGJ0xPyGVpcgCCfLxsWBVGilhYuoBE
gJnV01rZSKvWpRqaWBzrfxYUR4GT/tNWF+Cs1KYL9fIEhdF/UG8=
-----END CERTIFICATE-----
Certificate:
    Data:
        Version: 3 (0x2)
        Serial Number: 0 (0x0)
    Signature Algorithm: sha256WithRSAEncryption
        Issuer: C=US, ST=A, L=root, O=Hewlett Packard Enterprise Company, OU=Remote Device Access, CN=Hewlett Packard Enterprise Remote Device Access Test CA/emailAddress=rda@hpe.com
        Validity
            Not Before: Dec  9 13:15:02 2015 GMT
            Not After : Dec  5 13:15:02 2035 GMT
        Subject: C=US, ST=A, L=root, O=Hewlett Packard Enterprise Company, OU=Remote Device Access, CN=Hewlett Packard Enterprise Remote Device Access Test CA/emailAddress=rda@hpe.com
        Subject Public Key Info:
            Public Key Algorithm: rsaEncryption
                Public-Key: (2048 bit)
                Modulus:
                    00:aa:c8:e6:4e:b2:a2:09:c0:a9:10:9a:a4:0d:1a:
                    4d:89:c3:4b:0a:1c:b4:3a:c6:58:ba:1c:9e:86:75:
                    74:6d:f3:43:78:88:73:a9:99:83:bc:30:ec:ed:69:
                    03:3d:f6:d6:10:14:3e:8d:e4:ac:d5:a3:70:17:d6:
                    ed:8a:65:6b:0e:0c:41:15:0b:9b:fb:2f:eb:61:b3:
                    f4:63:86:cb:2c:0b:89:ed:8b:2d:a3:f7:51:69:15:
                    af:b9:33:bf:e9:09:86:23:12:6b:a7:78:de:8c:51:
                    4f:eb:7e:5c:31:02:de:e6:be:e7:51:b9:c6:c3:3b:
                    11:9e:86:54:f1:9e:97:19:b0:4a:4b:b6:f5:60:00:
                    bf:82:31:b3:8c:ef:3d:d3:b3:19:54:bf:25:e3:7c:
                    09:64:70:4a:5f:00:06:9f:e9:ac:79:f5:31:3f:6d:
                    71:e3:61:02:7a:c9:0a:8a:70:1c:e9:fc:8f:3d:8a:
                    5b:b9:a3:a5:4b:45:8e:96:5c:e8:94:0d:76:27:d5:
                    e7:e6:3c:9c:99:6c:62:c4:46:a3:f9:f5:4b:72:47:
                    b3:d8:31:d8:d6:36:e5:ff:0c:ce:5b:03:c3:50:ef:
                    ac:a0:42:db:66:ee:ab:d0:18:25:bc:a2:f0:90:a8:
                    3f:c6:9e:4d:dc:63:37:cb:9a:87:91:30:bb:4d:3d:
                    67:07
                Exponent: 65537 (0x10001)
        X509v3 extensions:
            X509v3 Subject Key Identifier:
                A8:A7:FC:8C:E6:F1:8F:57:10:10:3F:A4:A0:BD:6B:3F:C1:C6:C2:B2
            X509v3 Authority Key Identifier:
                keyid:A8:A7:FC:8C:E6:F1:8F:57:10:10:3F:A4:A0:BD:6B:3F:C1:C6:C2:B2
                DirName:/C=US/ST=A/L=root/O=Hewlett Packard Enterprise Company/OU=Remote Device Access/CN=Hewlett Packard Enterprise Remote Device Access Test CA/emailAddress=rda@hpe.com
                serial:00

            X509v3 Basic Constraints:
                CA:TRUE
    Signature Algorithm: sha256WithRSAEncryption
         5d:4e:88:b9:fd:44:e0:f6:45:7a:17:4e:2e:dc:95:85:cc:4f:
         b1:ac:68:94:cf:f6:22:0e:d7:6a:08:fd:28:5c:45:7f:94:f4:
         2d:f6:56:e3:0f:57:ff:b6:87:4d:e0:9a:ba:4e:60:0e:1c:5e:
         78:47:92:23:57:62:70:fc:f1:33:bf:32:e1:b9:5f:f6:52:9b:
         d4:88:cd:f8:dc:86:f9:48:85:57:52:bc:31:33:85:cb:21:b2:
         5c:86:f8:06:35:0c:52:58:9a:8c:3e:ae:9b:ff:1a:b0:15:3a:
         3e:ae:de:9f:bc:3f:36:86:82:a1:f7:18:34:67:a9:a0:1d:bf:
         85:dc:17:69:ef:26:dd:06:09:1b:f0:61:90:28:8e:dc:ff:80:
         c7:d4:29:6d:98:eb:fe:bf:28:21:58:d0:84:6e:f1:77:41:5b:
         5a:42:c1:d3:4e:f7:f4:52:33:e1:02:cb:47:67:6a:1a:d2:07:
         0c:3c:02:34:60:f7:db:68:70:48:1c:33:c9:d0:38:16:c4:ee:
         d7:d8:82:2c:63:ba:ac:41:a3:c7:13:fe:e6:33:46:42:8e:55:
         f7:f8:90:0a:bf:6e:a0:27:70:64:90:87:ce:89:8b:f8:bf:9d:
         60:98:98:40:1d:36:40:50:ae:7b:e8:92:5a:39:d3:1f:04:07:
         56:0b:ca:61
-----BEGIN CERTIFICATE-----
MIIFVjCCBD6gAwIBAgIBADANBgkqhkiG9w0BAQsFADCB0jELMAkGA1UEBhMCVVMx
CjAIBgNVBAgTAUExDTALBgNVBAcTBHJvb3QxKzApBgNVBAoTIkhld2xldHQgUGFj
a2FyZCBFbnRlcnByaXNlIENvbXBhbnkxHTAbBgNVBAsTFFJlbW90ZSBEZXZpY2Ug
QWNjZXNzMUAwPgYDVQQDEzdIZXdsZXR0IFBhY2thcmQgRW50ZXJwcmlzZSBSZW1v
dGUgRGV2aWNlIEFjY2VzcyBUZXN0IENBMRowGAYJKoZIhvcNAQkBFgtyZGFAaHBl
LmNvbTAeFw0xNTEyMDkxMzE1MDJaFw0zNTEyMDUxMzE1MDJaMIHSMQswCQYDVQQG
EwJVUzEKMAgGA1UECBMBQTENMAsGA1UEBxMEcm9vdDErMCkGA1UEChMiSGV3bGV0
dCBQYWNrYXJkIEVudGVycHJpc2UgQ29tcGFueTEdMBsGA1UECxMUUmVtb3RlIERl
dmljZSBBY2Nlc3MxQDA+BgNVBAMTN0hld2xldHQgUGFja2FyZCBFbnRlcnByaXNl
IFJlbW90ZSBEZXZpY2UgQWNjZXNzIFRlc3QgQ0ExGjAYBgkqhkiG9w0BCQEWC3Jk
YUBocGUuY29tMIIBIjANBgkqhkiG9w0BAQEFAAOCAQ8AMIIBCgKCAQEAqsjmTrKi
CcCpEJqkDRpNicNLChy0OsZYuhyehnV0bfNDeIhzqZmDvDDs7WkDPfbWEBQ+jeSs
1aNwF9btimVrDgxBFQub+y/rYbP0Y4bLLAuJ7Ysto/dRaRWvuTO/6QmGIxJrp3je
jFFP635cMQLe5r7nUbnGwzsRnoZU8Z6XGbBKS7b1YAC/gjGzjO8907MZVL8l43wJ
ZHBKXwAGn+msefUxP21x42ECeskKinAc6fyPPYpbuaOlS0WOllzolA12J9Xn5jyc
mWxixEaj+fVLckez2DHY1jbl/wzOWwPDUO+soELbZu6r0BglvKLwkKg/xp5N3GM3
y5qHkTC7TT1nBwIDAQABo4IBMzCCAS8wHQYDVR0OBBYEFKin/Izm8Y9XEBA/pKC9
az/BxsKyMIH/BgNVHSMEgfcwgfSAFKin/Izm8Y9XEBA/pKC9az/BxsKyoYHYpIHV
MIHSMQswCQYDVQQGEwJVUzEKMAgGA1UECBMBQTENMAsGA1UEBxMEcm9vdDErMCkG
A1UEChMiSGV3bGV0dCBQYWNrYXJkIEVudGVycHJpc2UgQ29tcGFueTEdMBsGA1UE
CxMUUmVtb3RlIERldmljZSBBY2Nlc3MxQDA+BgNVBAMTN0hld2xldHQgUGFja2Fy
ZCBFbnRlcnByaXNlIFJlbW90ZSBEZXZpY2UgQWNjZXNzIFRlc3QgQ0ExGjAYBgkq
hkiG9w0BCQEWC3JkYUBocGUuY29tggEAMAwGA1UdEwQFMAMBAf8wDQYJKoZIhvcN
AQELBQADggEBAF1OiLn9ROD2RXoXTi7clYXMT7GsaJTP9iIO12oI/ShcRX+U9C32
VuMPV/+2h03gmrpOYA4cXnhHkiNXYnD88TO/MuG5X/ZSm9SIzfjchvlIhVdSvDEz
hcshslyG+AY1DFJYmow+rpv/GrAVOj6u3p+8PzaGgqH3GDRnqaAdv4XcF2nvJt0G
CRvwYZAojtz/gMfUKW2Y6/6/KCFY0IRu8XdBW1pCwdNO9/RSM+ECy0dnahrSBww8
AjRg99tocEgcM8nQOBbE7tfYgixjuqxBo8cT/uYzRkKOVff4kAq/bqAncGSQh86J
i/i/nWCYmEAdNkBQrnvoklo50x8EB1YLymE=
-----END CERTIFICATE-----
",
 "Date":"2021-04-14T15:53:41.116022Z",
 "auth_token":"",
 "function":"sign",
 "registered":"no",
 "status":"success"}